Certificate:
    Data:
        Version: 3 (0x2)
        Serial Number:
            c2:fa:b9:08:d7:a1:e1:a5
        Signature Algorithm: sha1WithRSAEncryption
        Issuer: C=US, ST=Local Host, O=Internet Widgits Pty Ltd, CN=localhost
        Validity
            Not Before: Feb 18 02:25:22 2007 GMT
            Not After : Mar 20 02:25:22 2007 GMT
        Subject: C=US, ST=Local Host, O=Internet Widgits Pty Ltd, CN=localhost
        Subject Public Key Info:
            Public Key Algorithm: rsaEncryption
            RSA Public Key: (1024 bit)
                Modulus (1024 bit):
                    00:ab:5c:51:5d:69:66:75:22:2b:d7:4b:5c:63:d3:
                    f4:5e:ab:56:59:41:ac:41:5b:7c:89:42:8e:3b:44:
                    88:cf:b4:0b:45:46:9e:ac:be:ab:cd:29:31:6b:6c:
                    98:d6:67:5e:4b:7c:ec:66:6a:34:b8:20:84:21:fd:
                    63:c5:da:f8:1c:63:68:f0:a4:2d:ca:e0:53:2d:9d:
                    73:a7:90:88:eb:84:3e:c5:86:34:e1:4b:59:6c:f3:
                    24:a0:4d:cb:27:85:b2:a2:f2:01:e2:e5:84:78:17:
                    8a:45:02:41:4c:1a:43:d4:7b:b1:a7:be:b0:0c:db:
                    e4:b3:8b:fa:41:2a:b7:b0:59
                Exponent: 65537 (0x10001)
        X509v3 extensions:
            X509v3 Subject Key Identifier: 
                49:71:2C:CC:28:DA:84:6C:D7:42:E1:8C:1D:28:BD:0A:CB:4E:7D:38
            X509v3 Authority Key Identifier: 
                keyid:49:71:2C:CC:28:DA:84:6C:D7:42:E1:8C:1D:28:BD:0A:CB:4E:7D:38
                DirName:/C=US/ST=Local Host/O=Internet Widgits Pty Ltd/CN=localhost
                serial:C2:FA:B9:08:D7:A1:E1:A5

            X509v3 Basic Constraints: 
                CA:TRUE
    Signature Algorithm: sha1WithRSAEncryption
        2b:8a:5a:04:15:2c:52:dd:09:e3:5a:2a:8e:37:29:d4:f1:fe:
        6d:88:fe:bf:91:84:b9:25:ba:ac:8d:ad:27:30:96:00:79:eb:
        cb:fa:a0:df:4d:66:ee:9a:96:80:c1:81:49:db:37:86:c8:7c:
        16:04:8c:3d:4c:25:c4:0a:94:f5:32:f3:59:67:2c:74:8f:93:
        f6:b0:8e:3f:d6:49:49:48:a6:49:d1:c8:e6:01:5b:ca:89:a0:
        5d:f3:6a:8e:2d:4a:87:31:81:93:93:4d:b2:4d:46:62:f8:35:
        c1:03:7a:fc:2e:8f:60:59:ff:14:29:52:e2:52:5b:97:50:ab:
        a7:24
-----BEGIN CERTIFICATE-----
MIIC7zCCAligAwIBAgIJAML6uQjXoeGlMA0GCSqGSIb3DQEBBQUAMFkxCzAJBgNV
BAYTAlVTMRMwEQYDVQQIEwpMb2NhbCBIb3N0MSEwHwYDVQQKExhJbnRlcm5ldCBX
aWRnaXRzIFB0eSBMdGQxEjAQBgNVBAMTCWxvY2FsaG9zdDAeFw0wNzAyMTgwMjI1
MjJaFw0wNzAzMjAwMjI1MjJaMFkxCzAJBgNVBAYTAlVTMRMwEQYDVQQIEwpMb2Nh
bCBIb3N0MSEwHwYDVQQKExhJbnRlcm5ldCBXaWRnaXRzIFB0eSBMdGQxEjAQBgNV
BAMTCWxvY2FsaG9zdDCBnzANBgkqhkiG9w0BAQEFAAOBjQAwgYkCgYEAq1xRXWlm
dSIr10tcY9P0XqtWWUGsQVt8iUKOO0SIz7QLRUaerL6rzSkxa2yY1mdeS3zsZmo0
uCCEIf1jxdr4HGNo8KQtyuBTLZ1zp5CI64Q+xYY04UtZbPMkoE3LJ4WyovIB4uWE
eBeKRQJBTBpD1Huxp76wDNvks4v6QSq3sFkCAwEAAaOBvjCBuzAdBgNVHQ4EFgQU
SXEszCjahGzXQuGMHSi9CstOfTgwgYsGA1UdIwSBgzCBgIAUSXEszCjahGzXQuGM
HSi9CstOfTihXaRbMFkxCzAJBgNVBAYTAlVTMRMwEQYDVQQIEwpMb2NhbCBIb3N0
MSEwHwYDVQQKExhJbnRlcm5ldCBXaWRnaXRzIFB0eSBMdGQxEjAQBgNVBAMTCWxv
Y2FsaG9zdIIJAML6uQjXoeGlMAwGA1UdEwQFMAMBAf8wDQYJKoZIhvcNAQEFBQAD
gYEAK4paBBUsUt0J41oqjjcp1PH+bYj+v5GEuSW6rI2tJzCWAHnry/qg301m7pqW
gMGBSds3hsh8FgSMPUwlxAqU9TLzWWcsdI+T9rCOP9ZJSUimSdHI5gFbyomgXfNq
ji1KhzGBk5NNsk1GYvg1wQN6/C6PYFn/FClS4lJbl1CrpyQ=
-----END CERTIFICATE-----
